target datalayout = "e-m:e-p270:32:32-p271:32:32-p272:64:64-i64:64-i128:128-f80:128-n8:16:32:64-S128"
target triple = "x86_64-pc-linux-gnu"

%struct.__va_list_tag = type { i32, i32, ptr, ptr }

; Function Attrs: nounwind uwtable
define zeroext i1 @ecpg_do(i32 noundef %0, i32 noundef %1, i32 noundef %2, ptr noundef %3, i1 noundef zeroext %4, i32 noundef %5, ptr noundef %6, ptr noundef %7) #0 {
  %9 = alloca i1, align 1
  %10 = alloca i32, align 4
  %11 = alloca i32, align 4
  %12 = alloca i32, align 4
  %13 = alloca ptr, align 8
  %14 = alloca i8, align 1
  %15 = alloca i32, align 4
  %16 = alloca ptr, align 8
  %17 = alloca ptr, align 8
  %18 = alloca ptr, align 8
  %19 = alloca i32, align 4
  store i32 %0, ptr %10, align 4
  store i32 %1, ptr %11, align 4
  store i32 %2, ptr %12, align 4
  store ptr %3, ptr %13, align 8
  %20 = zext i1 %4 to i8
  store i8 %20, ptr %14, align 1
  store i32 %5, ptr %15, align 4
  store ptr %6, ptr %16, align 8
  store ptr %7, ptr %17, align 8
  call void @llvm.lifetime.start.p0(i64 8, ptr %18) #10
  store ptr null, ptr %18, align 8
  %21 = load i32, ptr %10, align 4
  %22 = load i32, ptr %11, align 4
  %23 = load i32, ptr %12, align 4
  %24 = load ptr, ptr %13, align 8
  %25 = load i8, ptr %14, align 1, !range !7, !noundef !8
  %26 = trunc i8 %25 to i1
  %27 = load i32, ptr %15, align 4
  %28 = load ptr, ptr %16, align 8
  %29 = load ptr, ptr %17, align 8
  %30 = call zeroext i1 @ecpg_do_prologue(i32 noundef %21, i32 noundef %22, i32 noundef %23, ptr noundef %24, i1 noundef zeroext %26, i32 noundef %27, ptr noundef %28, ptr noundef %29, ptr noundef %18)
  br i1 %30, label %32, label %31

31:                                               ; preds = %8
  br label %50

32:                                               ; preds = %8
  %33 = load ptr, ptr %18, align 8
  %34 = call zeroext i1 @ecpg_build_params(ptr noundef %33)
  br i1 %34, label %36, label %35

35:                                               ; preds = %32
  br label %50

36:                                               ; preds = %32
  %37 = load ptr, ptr %18, align 8
  %38 = call zeroext i1 @ecpg_autostart_transaction(ptr noundef %37)
  br i1 %38, label %40, label %39

39:                                               ; preds = %36
  br label %50

40:                                               ; preds = %36
  %41 = load ptr, ptr %18, align 8
  %42 = call zeroext i1 @ecpg_execute(ptr noundef %41)
  br i1 %42, label %44, label %43

43:                                               ; preds = %40
  br label %50

44:                                               ; preds = %40
  %45 = load ptr, ptr %18, align 8
  %46 = call zeroext i1 @ecpg_process_output(ptr noundef %45, i1 noundef zeroext true)
  br i1 %46, label %48, label %47

47:                                               ; preds = %44
  br label %50

48:                                               ; preds = %44
  %49 = load ptr, ptr %18, align 8
  call void @ecpg_do_epilogue(ptr noundef %49)
  store i1 true, ptr %9, align 1
  store i32 1, ptr %19, align 4
  br label %52

50:                                               ; preds = %47, %43, %39, %35, %31
  %51 = load ptr, ptr %18, align 8
  call void @ecpg_do_epilogue(ptr noundef %51)
  store i1 false, ptr %9, align 1
  store i32 1, ptr %19, align 4
  br label %52

52:                                               ; preds = %50, %48
  call void @llvm.lifetime.end.p0(i64 8, ptr %18) #10
  %53 = load i1, ptr %9, align 1
  ret i1 %53
}

; Function Attrs: nounwind uwtable
define zeroext i1 @ECPGdo(i32 noundef %0, i32 noundef %1, i32 noundef %2, ptr noundef %3, i1 noundef zeroext %4, i32 noundef %5, ptr noundef %6, ...) #0 {
  %8 = alloca i32, align 4
  %9 = alloca i32, align 4
  %10 = alloca i32, align 4
  %11 = alloca ptr, align 8
  %12 = alloca i8, align 1
  %13 = alloca i32, align 4
  %14 = alloca ptr, align 8
  %15 = alloca [1 x %struct.__va_list_tag], align 16
  %16 = alloca i8, align 1
  store i32 %0, ptr %8, align 4
  store i32 %1, ptr %9, align 4
  store i32 %2, ptr %10, align 4
  store ptr %3, ptr %11, align 8
  %17 = zext i1 %4 to i8
  store i8 %17, ptr %12, align 1
  store i32 %5, ptr %13, align 4
  store ptr %6, ptr %14, align 8
  call void @llvm.lifetime.start.p0(i64 24, ptr %15) #10
  call void @llvm.lifetime.start.p0(i64 1, ptr %16) #10
  %18 = getelementptr inbounds [1 x %struct.__va_list_tag], ptr %15, i64 0, i64 0
  call void @llvm.va_start.p0(ptr %18)
  %19 = load i32, ptr %8, align 4
  %20 = load i32, ptr %9, align 4
  %21 = load i32, ptr %10, align 4
  %22 = load ptr, ptr %11, align 8
  %23 = load i8, ptr %12, align 1, !range !7, !noundef !8
  %24 = trunc i8 %23 to i1
  %25 = load i32, ptr %13, align 4
  %26 = load ptr, ptr %14, align 8
  %27 = getelementptr inbounds [1 x %struct.__va_list_tag], ptr %15, i64 0, i64 0
  %28 = call zeroext i1 @ecpg_do(i32 noundef %19, i32 noundef %20, i32 noundef %21, ptr noundef %22, i1 noundef zeroext %24, i32 noundef %25, ptr noundef %26, ptr noundef %27)
  %29 = zext i1 %28 to i8
  store i8 %29, ptr %16, align 1
  %30 = getelementptr inbounds [1 x %struct.__va_list_tag], ptr %15, i64 0, i64 0
  call void @llvm.va_end.p0(ptr %30)
  %31 = load i8, ptr %16, align 1, !range !7, !noundef !8
  %32 = trunc i8 %31 to i1
  call void @llvm.lifetime.end.p0(i64 1, ptr %16) #10
  call void @llvm.lifetime.end.p0(i64 24, ptr %15) #10
  ret i1 %32
}