; Function Attrs: nounwind uwtable
define noundef zeroext i1 @ECPGdo(i32 noundef %0, i32 noundef %1, i32 noundef %2, ptr noundef %3, i1 noundef zeroext %4, i32 noundef %5, ptr noundef %6, ...) local_unnamed_addr #0 {
  %8 = alloca ptr, align 8
  %9 = alloca [1 x %struct.__va_list_tag], align 16
  call void @llvm.lifetime.start.p0(i64 24, ptr nonnull %9) #14
  call void @llvm.va_start.p0(ptr nonnull %9)
  call void @llvm.lifetime.start.p0(i64 8, ptr nonnull %8) #14
  %10 = call zeroext i1 @ecpg_do_prologue(i32 noundef %0, i32 noundef %1, i32 noundef %2, ptr noundef %3, i1 noundef zeroext %4, i32 noundef %5, ptr noundef %6, ptr noundef nonnull %9, ptr noundef nonnull %8)
  %.pre.i = load ptr, ptr %8, align 8
  br i1 %10, label %11, label %19

11:                                               ; preds = %7
  %12 = call zeroext i1 @ecpg_build_params(ptr noundef %.pre.i)
  br i1 %12, label %13, label %19

13:                                               ; preds = %11
  %14 = call zeroext i1 @ecpg_autostart_transaction(ptr noundef %.pre.i)
  br i1 %14, label %15, label %19

15:                                               ; preds = %13
  %16 = call zeroext i1 @ecpg_execute(ptr noundef %.pre.i)
  br i1 %16, label %17, label %19

17:                                               ; preds = %15
  %18 = call zeroext i1 @ecpg_process_output(ptr noundef %.pre.i, i1 noundef zeroext true)
  br i1 %18, label %ecpg_do.exit, label %19

19:                                               ; preds = %17, %15, %13, %11, %7
  br label %ecpg_do.exit

ecpg_do.exit:                                     ; preds = %17, %19
  %.0.i = phi i1 [ false, %19 ], [ true, %17 ]
  call void @ecpg_do_epilogue(ptr noundef %.pre.i)
  call void @llvm.lifetime.end.p0(i64 8, ptr nonnull %8) #14
  call void @llvm.va_end.p0(ptr nonnull %9)
  call void @llvm.lifetime.end.p0(i64 24, ptr nonnull %9) #14
  ret i1 %.0.i
}